target datalayout = "e-m:e-p270:32:32-p271:32:32-p272:64:64-i64:64-i128:128-f80:128-n8:16:32:64-S128"
target triple = "x86_64-pc-linux-gnu"

%struct.StringInfoData = type { ptr, i32, i32, i32 }
%struct.WalReceiverFunctionsType = type { ptr, ptr, ptr, ptr, ptr, ptr, ptr, ptr, ptr, ptr, ptr, ptr, ptr, ptr, ptr, ptr, ptr }
%struct.FullTransactionId = type { i64 }

@WalReceiverFunctions = dso_local global ptr null, align 8
@.str.1 = private unnamed_addr constant [14 x i8] c"walreceiver.c\00", align 1
@wrconn = internal global ptr null, align 8
@reply_message = internal global %struct.StringInfoData zeroinitializer, align 8
@wakeup = internal global [4 x i64] zeroinitializer, align 16
@wal_receiver_status_interval = dso_local global i32 0, align 4
@wal_receiver_timeout = dso_local global i32 0, align 4
@hot_standby_feedback = dso_local global i8 0, align 1
@XLogWalRcvSendHSFeedback.primary_has_standby_xmin = internal global i8 1, align 1
@.str.39 = private unnamed_addr constant [84 x i8] c"sending hot standby feedback xmin %u epoch %u catalog_xmin %u catalog_xmin_epoch %u\00", align 1
@__func__.XLogWalRcvSendHSFeedback = private unnamed_addr constant [25 x i8] c"XLogWalRcvSendHSFeedback\00", align 1

; Function Attrs: inlinehint nounwind uwtable
define internal void @pq_writeint8(ptr noalias noundef %0, i8 noundef zeroext %1) #6 {
  %3 = alloca ptr, align 8
  %4 = alloca i8, align 1
  %5 = alloca i8, align 1
  store ptr %0, ptr %3, align 8
  store i8 %1, ptr %4, align 1
  call void @llvm.lifetime.start.p0(i64 1, ptr %5) #16
  %6 = load i8, ptr %4, align 1
  store i8 %6, ptr %5, align 1
  %7 = load ptr, ptr %3, align 8
  %8 = getelementptr inbounds nuw %struct.StringInfoData, ptr %7, i32 0, i32 0
  %9 = load ptr, ptr %8, align 8
  %10 = load ptr, ptr %3, align 8
  %11 = getelementptr inbounds nuw %struct.StringInfoData, ptr %10, i32 0, i32 1
  %12 = load i32, ptr %11, align 8
  %13 = sext i32 %12 to i64
  %14 = getelementptr inbounds i8, ptr %9, i64 %13
  call void @llvm.memcpy.p0.p0.i64(ptr align 1 %14, ptr align 1 %5, i64 1, i1 false)
  %15 = load ptr, ptr %3, align 8
  %16 = getelementptr inbounds nuw %struct.StringInfoData, ptr %15, i32 0, i32 1
  %17 = load i32, ptr %16, align 8
  %18 = sext i32 %17 to i64
  %19 = add i64 %18, 1
  %20 = trunc i64 %19 to i32
  store i32 %20, ptr %16, align 8
  call void @llvm.lifetime.end.p0(i64 1, ptr %5) #16
  ret void
}

; Function Attrs: inlinehint nounwind uwtable
define internal void @pq_writeint32(ptr noalias noundef %0, i32 noundef %1) #6 {
  %3 = alloca ptr, align 8
  %4 = alloca i32, align 4
  %5 = alloca i32, align 4
  store ptr %0, ptr %3, align 8
  store i32 %1, ptr %4, align 4
  call void @llvm.lifetime.start.p0(i64 4, ptr %5) #16
  %6 = load i32, ptr %4, align 4
  %7 = call i32 @llvm.bswap.i32(i32 %6)
  store i32 %7, ptr %5, align 4
  %8 = load ptr, ptr %3, align 8
  %9 = getelementptr inbounds nuw %struct.StringInfoData, ptr %8, i32 0, i32 0
  %10 = load ptr, ptr %9, align 8
  %11 = load ptr, ptr %3, align 8
  %12 = getelementptr inbounds nuw %struct.StringInfoData, ptr %11, i32 0, i32 1
  %13 = load i32, ptr %12, align 8
  %14 = sext i32 %13 to i64
  %15 = getelementptr inbounds i8, ptr %10, i64 %14
  call void @llvm.memcpy.p0.p0.i64(ptr align 1 %15, ptr align 4 %5, i64 4, i1 false)
  %16 = load ptr, ptr %3, align 8
  %17 = getelementptr inbounds nuw %struct.StringInfoData, ptr %16, i32 0, i32 1
  %18 = load i32, ptr %17, align 8
  %19 = sext i32 %18 to i64
  %20 = add i64 %19, 4
  %21 = trunc i64 %20 to i32
  store i32 %21, ptr %17, align 8
  call void @llvm.lifetime.end.p0(i64 4, ptr %5) #16
  ret void
}

; Function Attrs: inlinehint nounwind uwtable
define internal void @pq_writeint64(ptr noalias noundef %0, i64 noundef %1) #6 {
  %3 = alloca ptr, align 8
  %4 = alloca i64, align 8
  %5 = alloca i64, align 8
  store ptr %0, ptr %3, align 8
  store i64 %1, ptr %4, align 8
  call void @llvm.lifetime.start.p0(i64 8, ptr %5) #16
  %6 = load i64, ptr %4, align 8
  %7 = call i64 @llvm.bswap.i64(i64 %6)
  store i64 %7, ptr %5, align 8
  %8 = load ptr, ptr %3, align 8
  %9 = getelementptr inbounds nuw %struct.StringInfoData, ptr %8, i32 0, i32 0
  %10 = load ptr, ptr %9, align 8
  %11 = load ptr, ptr %3, align 8
  %12 = getelementptr inbounds nuw %struct.StringInfoData, ptr %11, i32 0, i32 1
  %13 = load i32, ptr %12, align 8
  %14 = sext i32 %13 to i64
  %15 = getelementptr inbounds i8, ptr %10, i64 %14
  call void @llvm.memcpy.p0.p0.i64(ptr align 1 %15, ptr align 8 %5, i64 8, i1 false)
  %16 = load ptr, ptr %3, align 8
  %17 = getelementptr inbounds nuw %struct.StringInfoData, ptr %16, i32 0, i32 1
  %18 = load i32, ptr %17, align 8
  %19 = sext i32 %18 to i64
  %20 = add i64 %19, 8
  %21 = trunc i64 %20 to i32
  store i32 %21, ptr %17, align 8
  call void @llvm.lifetime.end.p0(i64 8, ptr %5) #16
  ret void
}

; Function Attrs: inlinehint nounwind uwtable
define internal void @pq_sendint8(ptr noundef %0, i8 noundef zeroext %1) #6 {
  %3 = alloca ptr, align 8
  %4 = alloca i8, align 1
  store ptr %0, ptr %3, align 8
  store i8 %1, ptr %4, align 1
  %5 = load ptr, ptr %3, align 8
  call void @enlargeStringInfo(ptr noundef %5, i32 noundef 1)
  %6 = load ptr, ptr %3, align 8
  %7 = load i8, ptr %4, align 1
  call void @pq_writeint8(ptr noundef %6, i8 noundef zeroext %7)
  ret void
}

; Function Attrs: inlinehint nounwind uwtable
define internal void @pq_sendint32(ptr noundef %0, i32 noundef %1) #6 {
  %3 = alloca ptr, align 8
  %4 = alloca i32, align 4
  store ptr %0, ptr %3, align 8
  store i32 %1, ptr %4, align 4
  %5 = load ptr, ptr %3, align 8
  call void @enlargeStringInfo(ptr noundef %5, i32 noundef 4)
  %6 = load ptr, ptr %3, align 8
  %7 = load i32, ptr %4, align 4
  call void @pq_writeint32(ptr noundef %6, i32 noundef %7)
  ret void
}

; Function Attrs: inlinehint nounwind uwtable
define internal void @pq_sendint64(ptr noundef %0, i64 noundef %1) #6 {
  %3 = alloca ptr, align 8
  %4 = alloca i64, align 8
  store ptr %0, ptr %3, align 8
  store i64 %1, ptr %4, align 8
  %5 = load ptr, ptr %3, align 8
  call void @enlargeStringInfo(ptr noundef %5, i32 noundef 8)
  %6 = load ptr, ptr %3, align 8
  %7 = load i64, ptr %4, align 8
  call void @pq_writeint64(ptr noundef %6, i64 noundef %7)
  ret void
}

; Function Attrs: inlinehint nounwind uwtable
define internal void @pq_sendbyte(ptr noundef %0, i8 noundef zeroext %1) #6 {
  %3 = alloca ptr, align 8
  %4 = alloca i8, align 1
  store ptr %0, ptr %3, align 8
  store i8 %1, ptr %4, align 1
  %5 = load ptr, ptr %3, align 8
  %6 = load i8, ptr %4, align 1
  call void @pq_sendint8(ptr noundef %5, i8 noundef zeroext %6)
  ret void
}

; Function Attrs: nounwind uwtable
define internal void @WalRcvComputeNextWakeup(i32 noundef %0, i64 noundef %1) #0 {
  %3 = alloca i32, align 4
  %4 = alloca i64, align 8
  store i32 %0, ptr %3, align 4
  store i64 %1, ptr %4, align 8
  %5 = load i32, ptr %3, align 4
  switch i32 %5, label %78 [
    i32 0, label %6
    i32 1, label %23
    i32 3, label %41
    i32 2, label %61
  ]

6:                                                ; preds = %2
  %7 = load i32, ptr @wal_receiver_timeout, align 4
  %8 = icmp sle i32 %7, 0
  br i1 %8, label %9, label %13

9:                                                ; preds = %6
  %10 = load i32, ptr %3, align 4
  %11 = zext i32 %10 to i64
  %12 = getelementptr inbounds nuw [4 x i64], ptr @wakeup, i64 0, i64 %11
  store i64 9223372036854775807, ptr %12, align 8
  br label %22

13:                                               ; preds = %6
  %14 = load i64, ptr %4, align 8
  %15 = load i32, ptr @wal_receiver_timeout, align 4
  %16 = sext i32 %15 to i64
  %17 = mul i64 %16, 1000
  %18 = add i64 %14, %17
  %19 = load i32, ptr %3, align 4
  %20 = zext i32 %19 to i64
  %21 = getelementptr inbounds nuw [4 x i64], ptr @wakeup, i64 0, i64 %20
  store i64 %18, ptr %21, align 8
  br label %22

22:                                               ; preds = %13, %9
  br label %78

23:                                               ; preds = %2
  %24 = load i32, ptr @wal_receiver_timeout, align 4
  %25 = icmp sle i32 %24, 0
  br i1 %25, label %26, label %30

26:                                               ; preds = %23
  %27 = load i32, ptr %3, align 4
  %28 = zext i32 %27 to i64
  %29 = getelementptr inbounds nuw [4 x i64], ptr @wakeup, i64 0, i64 %28
  store i64 9223372036854775807, ptr %29, align 8
  br label %40

30:                                               ; preds = %23
  %31 = load i64, ptr %4, align 8
  %32 = load i32, ptr @wal_receiver_timeout, align 4
  %33 = sdiv i32 %32, 2
  %34 = sext i32 %33 to i64
  %35 = mul i64 %34, 1000
  %36 = add i64 %31, %35
  %37 = load i32, ptr %3, align 4
  %38 = zext i32 %37 to i64
  %39 = getelementptr inbounds nuw [4 x i64], ptr @wakeup, i64 0, i64 %38
  store i64 %36, ptr %39, align 8
  br label %40

40:                                               ; preds = %30, %26
  br label %78

41:                                               ; preds = %2
  %42 = load i8, ptr @hot_standby_feedback, align 1, !range !6, !noundef !7
  %43 = trunc i8 %42 to i1
  br i1 %43, label %44, label %47

44:                                               ; preds = %41
  %45 = load i32, ptr @wal_receiver_status_interval, align 4
  %46 = icmp sle i32 %45, 0
  br i1 %46, label %47, label %51

47:                                               ; preds = %44, %41
  %48 = load i32, ptr %3, align 4
  %49 = zext i32 %48 to i64
  %50 = getelementptr inbounds nuw [4 x i64], ptr @wakeup, i64 0, i64 %49
  store i64 9223372036854775807, ptr %50, align 8
  br label %60

51:                                               ; preds = %44
  %52 = load i64, ptr %4, align 8
  %53 = load i32, ptr @wal_receiver_status_interval, align 4
  %54 = sext i32 %53 to i64
  %55 = mul i64 %54, 1000000
  %56 = add i64 %52, %55
  %57 = load i32, ptr %3, align 4
  %58 = zext i32 %57 to i64
  %59 = getelementptr inbounds nuw [4 x i64], ptr @wakeup, i64 0, i64 %58
  store i64 %56, ptr %59, align 8
  br label %60

60:                                               ; preds = %51, %47
  br label %78

61:                                               ; preds = %2
  %62 = load i32, ptr @wal_receiver_status_interval, align 4
  %63 = icmp sle i32 %62, 0
  br i1 %63, label %64, label %68

64:                                               ; preds = %61
  %65 = load i32, ptr %3, align 4
  %66 = zext i32 %65 to i64
  %67 = getelementptr inbounds nuw [4 x i64], ptr @wakeup, i64 0, i64 %66
  store i64 9223372036854775807, ptr %67, align 8
  br label %77

68:                                               ; preds = %61
  %69 = load i64, ptr %4, align 8
  %70 = load i32, ptr @wal_receiver_status_interval, align 4
  %71 = sext i32 %70 to i64
  %72 = mul i64 %71, 1000000
  %73 = add i64 %69, %72
  %74 = load i32, ptr %3, align 4
  %75 = zext i32 %74 to i64
  %76 = getelementptr inbounds nuw [4 x i64], ptr @wakeup, i64 0, i64 %75
  store i64 %73, ptr %76, align 8
  br label %77

77:                                               ; preds = %68, %64
  br label %78

78:                                               ; preds = %2, %77, %60, %40, %22
  ret void
}

; Function Attrs: nounwind uwtable
define internal void @XLogWalRcvSendHSFeedback(i1 noundef zeroext %0) #0 {
  %2 = alloca i8, align 1
  %3 = alloca i64, align 8
  %4 = alloca %struct.FullTransactionId, align 8
  %5 = alloca i32, align 4
  %6 = alloca i32, align 4
  %7 = alloca i32, align 4
  %8 = alloca i32, align 4
  %9 = alloca i32, align 4
  %10 = alloca i32, align 4
  %11 = alloca %struct.FullTransactionId, align 8
  %12 = zext i1 %0 to i8
  store i8 %12, ptr %2, align 1
  call void @llvm.lifetime.start.p0(i64 8, ptr %3) #16
  call void @llvm.lifetime.start.p0(i64 8, ptr %4) #16
  call void @llvm.lifetime.start.p0(i64 4, ptr %5) #16
  call void @llvm.lifetime.start.p0(i64 4, ptr %6) #16
  call void @llvm.lifetime.start.p0(i64 4, ptr %7) #16
  call void @llvm.lifetime.start.p0(i64 4, ptr %8) #16
  call void @llvm.lifetime.start.p0(i64 4, ptr %9) #16
  %13 = load i32, ptr @wal_receiver_status_interval, align 4
  %14 = icmp sle i32 %13, 0
  br i1 %14, label %18, label %15

15:                                               ; preds = %1
  %16 = load i8, ptr @hot_standby_feedback, align 1, !range !6, !noundef !7
  %17 = trunc i8 %16 to i1
  br i1 %17, label %22, label %18

18:                                               ; preds = %15, %1
  %19 = load i8, ptr @XLogWalRcvSendHSFeedback.primary_has_standby_xmin, align 1, !range !6, !noundef !7
  %20 = trunc i8 %19 to i1
  br i1 %20, label %22, label %21

21:                                               ; preds = %18
  store i32 1, ptr %10, align 4
  br label %98

22:                                               ; preds = %18, %15
  %23 = call i64 @GetCurrentTimestamp()
  store i64 %23, ptr %3, align 8
  %24 = load i8, ptr %2, align 1, !range !6, !noundef !7
  %25 = trunc i8 %24 to i1
  br i1 %25, label %31, label %26

26:                                               ; preds = %22
  %27 = load i64, ptr %3, align 8
  %28 = load i64, ptr getelementptr inbounds ([4 x i64], ptr @wakeup, i64 0, i64 3), align 8
  %29 = icmp slt i64 %27, %28
  br i1 %29, label %30, label %31

30:                                               ; preds = %26
  store i32 1, ptr %10, align 4
  br label %98

31:                                               ; preds = %26, %22
  %32 = load i64, ptr %3, align 8
  call void @WalRcvComputeNextWakeup(i32 noundef 3, i64 noundef %32)
  %33 = call zeroext i1 @HotStandbyActive()
  br i1 %33, label %35, label %34

34:                                               ; preds = %31
  store i32 1, ptr %10, align 4
  br label %98

35:                                               ; preds = %31
  %36 = load i8, ptr @hot_standby_feedback, align 1, !range !6, !noundef !7
  %37 = trunc i8 %36 to i1
  br i1 %37, label %38, label %39

38:                                               ; preds = %35
  call void @GetReplicationHorizons(ptr noundef %8, ptr noundef %9)
  br label %40

39:                                               ; preds = %35
  store i32 0, ptr %8, align 4
  store i32 0, ptr %9, align 4
  br label %40

40:                                               ; preds = %39, %38
  call void @llvm.lifetime.start.p0(i64 8, ptr %11) #16
  %41 = call i64 @ReadNextFullTransactionId()
  %42 = getelementptr inbounds nuw %struct.FullTransactionId, ptr %11, i32 0, i32 0
  store i64 %41, ptr %42, align 8
  call void @llvm.memcpy.p0.p0.i64(ptr align 8 %4, ptr align 8 %11, i64 8, i1 false)
  call void @llvm.lifetime.end.p0(i64 8, ptr %11) #16
  %43 = getelementptr inbounds nuw %struct.FullTransactionId, ptr %4, i32 0, i32 0
  %44 = load i64, ptr %43, align 8
  %45 = trunc i64 %44 to i32
  store i32 %45, ptr %5, align 4
  %46 = getelementptr inbounds nuw %struct.FullTransactionId, ptr %4, i32 0, i32 0
  %47 = load i64, ptr %46, align 8
  %48 = lshr i64 %47, 32
  %49 = trunc i64 %48 to i32
  store i32 %49, ptr %6, align 4
  %50 = load i32, ptr %6, align 4
  store i32 %50, ptr %7, align 4
  %51 = load i32, ptr %5, align 4
  %52 = load i32, ptr %8, align 4
  %53 = icmp ult i32 %51, %52
  br i1 %53, label %54, label %57

54:                                               ; preds = %40
  %55 = load i32, ptr %6, align 4
  %56 = add i32 %55, -1
  store i32 %56, ptr %6, align 4
  br label %57

57:                                               ; preds = %54, %40
  %58 = load i32, ptr %5, align 4
  %59 = load i32, ptr %9, align 4
  %60 = icmp ult i32 %58, %59
  br i1 %60, label %61, label %64

61:                                               ; preds = %57
  %62 = load i32, ptr %7, align 4
  %63 = add i32 %62, -1
  store i32 %63, ptr %7, align 4
  br label %64

64:                                               ; preds = %61, %57
  br label %65

65:                                               ; preds = %64
  br i1 false, label %66, label %68

66:                                               ; preds = %65
  %67 = call zeroext i1 @errstart_cold(i32 noundef 13, ptr noundef null) #15
  br i1 %67, label %70, label %76

68:                                               ; preds = %65
  %69 = call zeroext i1 @errstart(i32 noundef 13, ptr noundef null)
  br i1 %69, label %70, label %76

70:                                               ; preds = %68, %66
  %71 = load i32, ptr %8, align 4
  %72 = load i32, ptr %6, align 4
  %73 = load i32, ptr %9, align 4
  %74 = load i32, ptr %7, align 4
  %75 = call i32 (ptr, ...) @errmsg_internal(ptr noundef @.str.39, i32 noundef %71, i32 noundef %72, i32 noundef %73, i32 noundef %74)
  call void @errfinish(ptr noundef @.str.1, i32 noundef 1242, ptr noundef @__func__.XLogWalRcvSendHSFeedback)
  br label %76

76:                                               ; preds = %70, %68, %66
  br label %77

77:                                               ; preds = %76
  br label %78

78:                                               ; preds = %77
  call void @resetStringInfo(ptr noundef @reply_message)
  call void @pq_sendbyte(ptr noundef @reply_message, i8 noundef zeroext 104)
  %79 = call i64 @GetCurrentTimestamp()
  call void @pq_sendint64(ptr noundef @reply_message, i64 noundef %79)
  %80 = load i32, ptr %8, align 4
  call void @pq_sendint32(ptr noundef @reply_message, i32 noundef %80)
  %81 = load i32, ptr %6, align 4
  call void @pq_sendint32(ptr noundef @reply_message, i32 noundef %81)
  %82 = load i32, ptr %9, align 4
  call void @pq_sendint32(ptr noundef @reply_message, i32 noundef %82)
  %83 = load i32, ptr %7, align 4
  call void @pq_sendint32(ptr noundef @reply_message, i32 noundef %83)
  %84 = load ptr, ptr @WalReceiverFunctions, align 8
  %85 = getelementptr inbounds nuw %struct.WalReceiverFunctionsType, ptr %84, i32 0, i32 11
  %86 = load ptr, ptr %85, align 8
  %87 = load ptr, ptr @wrconn, align 8
  %88 = load ptr, ptr @reply_message, align 8
  %89 = load i32, ptr getelementptr inbounds nuw (%struct.StringInfoData, ptr @reply_message, i32 0, i32 1), align 8
  call void %86(ptr noundef %87, ptr noundef %88, i32 noundef %89)
  %90 = load i32, ptr %8, align 4
  %91 = icmp ne i32 %90, 0
  br i1 %91, label %95, label %92

92:                                               ; preds = %78
  %93 = load i32, ptr %9, align 4
  %94 = icmp ne i32 %93, 0
  br i1 %94, label %95, label %96

95:                                               ; preds = %92, %78
  store i8 1, ptr @XLogWalRcvSendHSFeedback.primary_has_standby_xmin, align 1
  br label %97

96:                                               ; preds = %92
  store i8 0, ptr @XLogWalRcvSendHSFeedback.primary_has_standby_xmin, align 1
  br label %97

97:                                               ; preds = %96, %95
  store i32 0, ptr %10, align 4
  br label %98

98:                                               ; preds = %97, %34, %30, %21
  call void @llvm.lifetime.end.p0(i64 4, ptr %9) #16
  call void @llvm.lifetime.end.p0(i64 4, ptr %8) #16
  call void @llvm.lifetime.end.p0(i64 4, ptr %7) #16
  call void @llvm.lifetime.end.p0(i64 4, ptr %6) #16
  call void @llvm.lifetime.end.p0(i64 4, ptr %5) #16
  call void @llvm.lifetime.end.p0(i64 8, ptr %4) #16
  call void @llvm.lifetime.end.p0(i64 8, ptr %3) #16
  %99 = load i32, ptr %10, align 4
  switch i32 %99, label %101 [
    i32 0, label %100
    i32 1, label %100
  ]

100:                                              ; preds = %98, %98
  ret void

101:                                              ; preds = %98
  unreachable
}