; Function Attrs: nounwind uwtable
define internal fastcc void @XLogWalRcvSendHSFeedback(i1 noundef zeroext %0) unnamed_addr #0 {
  %2 = alloca i32, align 4
  %3 = alloca i32, align 4
  call void @llvm.lifetime.start.p0(i64 4, ptr nonnull %2) #16
  call void @llvm.lifetime.start.p0(i64 4, ptr nonnull %3) #16
  %4 = load i32, ptr @wal_receiver_status_interval, align 4
  %5 = icmp slt i32 %4, 1
  br i1 %5, label %9, label %6

6:                                                ; preds = %1
  %7 = load i8, ptr @hot_standby_feedback, align 1, !range !8, !noundef !9
  %8 = trunc nuw i8 %7 to i1
  br i1 %8, label %10, label %9

9:                                                ; preds = %6, %1
  %.b = load i1, ptr @XLogWalRcvSendHSFeedback.primary_has_standby_xmin, align 1
  br i1 %.b, label %96, label %10

10:                                               ; preds = %9, %6
  %11 = tail call i64 @GetCurrentTimestamp() #16
  %12 = load i64, ptr getelementptr inbounds nuw (i8, ptr @wakeup, i64 24), align 8
  %13 = icmp sge i64 %11, %12
  %or.cond.not19 = select i1 %0, i1 true, i1 %13
  br i1 %or.cond.not19, label %WalRcvComputeNextWakeup.exit, label %96

WalRcvComputeNextWakeup.exit:                     ; preds = %10
  %14 = load i8, ptr @hot_standby_feedback, align 1, !range !8, !noundef !9
  %15 = trunc nuw i8 %14 to i1
  %16 = load i32, ptr @wal_receiver_status_interval, align 4
  %17 = icmp sgt i32 %16, 0
  %or.cond.not.i = select i1 %15, i1 %17, i1 false
  %18 = zext nneg i32 %16 to i64
  %19 = mul nuw nsw i64 %18, 1000000
  %20 = add i64 %19, %11
  %storemerge = select i1 %or.cond.not.i, i64 %20, i64 9223372036854775807
  store i64 %storemerge, ptr getelementptr inbounds nuw (i8, ptr @wakeup, i64 24), align 8
  %21 = tail call zeroext i1 @HotStandbyActive() #16
  br i1 %21, label %22, label %96

22:                                               ; preds = %WalRcvComputeNextWakeup.exit
  %23 = load i8, ptr @hot_standby_feedback, align 1, !range !8, !noundef !9
  %24 = trunc nuw i8 %23 to i1
  br i1 %24, label %25, label %26

25:                                               ; preds = %22
  call void @GetReplicationHorizons(ptr noundef nonnull %2, ptr noundef nonnull %3) #16
  br label %27

26:                                               ; preds = %22
  store i32 0, ptr %2, align 4
  store i32 0, ptr %3, align 4
  br label %27

27:                                               ; preds = %26, %25
  %28 = call i64 @ReadNextFullTransactionId() #16
  %29 = trunc i64 %28 to i32
  %30 = lshr i64 %28, 32
  %31 = trunc nuw i64 %30 to i32
  %32 = load i32, ptr %2, align 4
  %33 = icmp ugt i32 %32, %29
  %34 = add i32 %31, -1
  %spec.select = select i1 %33, i32 %34, i32 %31
  %35 = load i32, ptr %3, align 4
  %36 = icmp ugt i32 %35, %29
  %.015 = select i1 %36, i32 %34, i32 %31
  %37 = call zeroext i1 @errstart(i32 noundef 13, ptr noundef null) #16
  br i1 %37, label %38, label %42

38:                                               ; preds = %27
  %39 = load i32, ptr %2, align 4
  %40 = load i32, ptr %3, align 4
  %41 = call i32 (ptr, ...) @errmsg_internal(ptr noundef nonnull @.str.39, i32 noundef %39, i32 noundef %spec.select, i32 noundef %40, i32 noundef %.015) #16
  call void @errfinish(ptr noundef nonnull @.str.1, i32 noundef 1242, ptr noundef nonnull @__func__.XLogWalRcvSendHSFeedback) #16
  br label %42

42:                                               ; preds = %38, %27
  call void @resetStringInfo(ptr noundef nonnull @reply_message) #16
  call void @enlargeStringInfo(ptr noundef nonnull @reply_message, i32 noundef 1) #16
  %43 = load ptr, ptr @reply_message, align 8
  %44 = load i32, ptr getelementptr inbounds nuw (i8, ptr @reply_message, i64 8), align 8
  %45 = sext i32 %44 to i64
  %46 = getelementptr inbounds i8, ptr %43, i64 %45
  store i8 104, ptr %46, align 1
  %47 = load i32, ptr getelementptr inbounds nuw (i8, ptr @reply_message, i64 8), align 8
  %48 = add i32 %47, 1
  store i32 %48, ptr getelementptr inbounds nuw (i8, ptr @reply_message, i64 8), align 8
  %49 = call i64 @GetCurrentTimestamp() #16
  call void @enlargeStringInfo(ptr noundef nonnull @reply_message, i32 noundef 8) #16
  %50 = call i64 @llvm.bswap.i64(i64 %49)
  %51 = load ptr, ptr @reply_message, align 8
  %52 = load i32, ptr getelementptr inbounds nuw (i8, ptr @reply_message, i64 8), align 8
  %53 = sext i32 %52 to i64
  %54 = getelementptr inbounds i8, ptr %51, i64 %53
  store i64 %50, ptr %54, align 1
  %55 = load i32, ptr getelementptr inbounds nuw (i8, ptr @reply_message, i64 8), align 8
  %56 = add i32 %55, 8
  store i32 %56, ptr getelementptr inbounds nuw (i8, ptr @reply_message, i64 8), align 8
  %57 = load i32, ptr %2, align 4
  call void @enlargeStringInfo(ptr noundef nonnull @reply_message, i32 noundef 4) #16
  %58 = call i32 @llvm.bswap.i32(i32 %57)
  %59 = load ptr, ptr @reply_message, align 8
  %60 = load i32, ptr getelementptr inbounds nuw (i8, ptr @reply_message, i64 8), align 8
  %61 = sext i32 %60 to i64
  %62 = getelementptr inbounds i8, ptr %59, i64 %61
  store i32 %58, ptr %62, align 1
  %63 = load i32, ptr getelementptr inbounds nuw (i8, ptr @reply_message, i64 8), align 8
  %64 = add i32 %63, 4
  store i32 %64, ptr getelementptr inbounds nuw (i8, ptr @reply_message, i64 8), align 8
  call void @enlargeStringInfo(ptr noundef nonnull @reply_message, i32 noundef 4) #16
  %65 = call i32 @llvm.bswap.i32(i32 %spec.select)
  %66 = load ptr, ptr @reply_message, align 8
  %67 = load i32, ptr getelementptr inbounds nuw (i8, ptr @reply_message, i64 8), align 8
  %68 = sext i32 %67 to i64
  %69 = getelementptr inbounds i8, ptr %66, i64 %68
  store i32 %65, ptr %69, align 1
  %70 = load i32, ptr getelementptr inbounds nuw (i8, ptr @reply_message, i64 8), align 8
  %71 = add i32 %70, 4
  store i32 %71, ptr getelementptr inbounds nuw (i8, ptr @reply_message, i64 8), align 8
  %72 = load i32, ptr %3, align 4
  call void @enlargeStringInfo(ptr noundef nonnull @reply_message, i32 noundef 4) #16
  %73 = call i32 @llvm.bswap.i32(i32 %72)
  %74 = load ptr, ptr @reply_message, align 8
  %75 = load i32, ptr getelementptr inbounds nuw (i8, ptr @reply_message, i64 8), align 8
  %76 = sext i32 %75 to i64
  %77 = getelementptr inbounds i8, ptr %74, i64 %76
  store i32 %73, ptr %77, align 1
  %78 = load i32, ptr getelementptr inbounds nuw (i8, ptr @reply_message, i64 8), align 8
  %79 = add i32 %78, 4
  store i32 %79, ptr getelementptr inbounds nuw (i8, ptr @reply_message, i64 8), align 8
  call void @enlargeStringInfo(ptr noundef nonnull @reply_message, i32 noundef 4) #16
  %80 = call i32 @llvm.bswap.i32(i32 %.015)
  %81 = load ptr, ptr @reply_message, align 8
  %82 = load i32, ptr getelementptr inbounds nuw (i8, ptr @reply_message, i64 8), align 8
  %83 = sext i32 %82 to i64
  %84 = getelementptr inbounds i8, ptr %81, i64 %83
  store i32 %80, ptr %84, align 1
  %85 = load i32, ptr getelementptr inbounds nuw (i8, ptr @reply_message, i64 8), align 8
  %86 = add i32 %85, 4
  store i32 %86, ptr getelementptr inbounds nuw (i8, ptr @reply_message, i64 8), align 8
  %87 = load ptr, ptr @WalReceiverFunctions, align 8
  %88 = getelementptr inbounds nuw i8, ptr %87, i64 88
  %89 = load ptr, ptr %88, align 8
  %90 = load ptr, ptr @wrconn, align 8
  %91 = load ptr, ptr @reply_message, align 8
  call void %89(ptr noundef %90, ptr noundef %91, i32 noundef %86) #16
  %92 = load i32, ptr %2, align 4
  %93 = icmp eq i32 %92, 0
  %94 = load i32, ptr %3, align 4
  %95 = icmp eq i32 %94, 0
  %or.cond.not = select i1 %93, i1 %95, i1 false
  store i1 %or.cond.not, ptr @XLogWalRcvSendHSFeedback.primary_has_standby_xmin, align 1
  br label %96

96:                                               ; preds = %WalRcvComputeNextWakeup.exit, %10, %9, %42
  call void @llvm.lifetime.end.p0(i64 4, ptr nonnull %3) #16
  call void @llvm.lifetime.end.p0(i64 4, ptr nonnull %2) #16
  ret void
}